target datalayout = "e-m:e-p270:32:32-p271:32:32-p272:64:64-i64:64-i128:128-f80:128-n8:16:32:64-S128"
target triple = "x86_64-unknown-linux-gnu"

%"union.zmq::ip_addr_t" = type { %struct.sockaddr_in6 }
%struct.sockaddr_in6 = type { i16, i16, i32, %struct.in6_addr, i32 }
%struct.in6_addr = type { %union.anon }
%union.anon = type { [4 x i32] }
%"class.zmq::udp_address_t" = type { ptr, %"union.zmq::ip_addr_t", i32, %"union.zmq::ip_addr_t", i8, %"class.std::__cxx11::basic_string" }
%"class.std::__cxx11::basic_string" = type { %"struct.std::__cxx11::basic_string<char>::_Alloc_hider", i64, %union.anon.0 }
%"struct.std::__cxx11::basic_string<char>::_Alloc_hider" = type { ptr }
%union.anon.0 = type { i64, [8 x i8] }

@_ZTVN3zmq13udp_address_tE = unnamed_addr constant { [5 x ptr] } { [5 x ptr] [ptr null, ptr @_ZTIN3zmq13udp_address_tE, ptr @_ZN3zmq13udp_address_tD1Ev, ptr @_ZN3zmq13udp_address_tD0Ev, ptr @_ZN3zmq13udp_address_t9to_stringERNSt7__cxx1112basic_stringIcSt11char_traitsIcESaIcEEE] }, align 8

; Function Attrs: mustprogress uwtable
define void @_ZN3zmq13udp_address_tC2Ev(ptr noundef nonnull align 8 dereferenceable(104) %this) unnamed_addr #0 align 2 personality ptr @__gxx_personality_v0 {
entry:
  %this.addr = alloca ptr, align 8
  %ref.tmp = alloca %"union.zmq::ip_addr_t", align 4
  %exn.slot = alloca ptr, align 8
  %ehselector.slot = alloca i32, align 4
  %ref.tmp3 = alloca %"union.zmq::ip_addr_t", align 4
  store ptr %this, ptr %this.addr, align 8
  %this1 = load ptr, ptr %this.addr, align 8
  store ptr getelementptr inbounds ({ [5 x ptr] }, ptr @_ZTVN3zmq13udp_address_tE, i32 0, i32 0, i32 2), ptr %this1, align 8
  %_bind_interface = getelementptr inbounds %"class.zmq::udp_address_t", ptr %this1, i32 0, i32 2
  store i32 -1, ptr %_bind_interface, align 4
  %_is_multicast = getelementptr inbounds %"class.zmq::udp_address_t", ptr %this1, i32 0, i32 4
  store i8 0, ptr %_is_multicast, align 4
  %_address = getelementptr inbounds %"class.zmq::udp_address_t", ptr %this1, i32 0, i32 5
  call void @_ZNSt7__cxx1112basic_stringIcSt11char_traitsIcESaIcEEC1Ev(ptr noundef nonnull align 8 dereferenceable(32) %_address) #8
  invoke void @_ZN3zmq9ip_addr_t3anyEi(ptr sret(%"union.zmq::ip_addr_t") align 4 %ref.tmp, i32 noundef 2)
          to label %invoke.cont unwind label %lpad

invoke.cont:                                      ; preds = %entry
  %_bind_address2 = getelementptr inbounds %"class.zmq::udp_address_t", ptr %this1, i32 0, i32 1
  call void @llvm.memcpy.p0.p0.i64(ptr align 8 %_bind_address2, ptr align 4 %ref.tmp, i64 28, i1 false)
  invoke void @_ZN3zmq9ip_addr_t3anyEi(ptr sret(%"union.zmq::ip_addr_t") align 4 %ref.tmp3, i32 noundef 2)
          to label %invoke.cont4 unwind label %lpad

invoke.cont4:                                     ; preds = %invoke.cont
  %_target_address5 = getelementptr inbounds %"class.zmq::udp_address_t", ptr %this1, i32 0, i32 3
  call void @llvm.memcpy.p0.p0.i64(ptr align 8 %_target_address5, ptr align 4 %ref.tmp3, i64 28, i1 false)
  ret void

lpad:                                             ; preds = %invoke.cont, %entry
  %0 = landingpad { ptr, i32 }
          cleanup
  %1 = extractvalue { ptr, i32 } %0, 0
  store ptr %1, ptr %exn.slot, align 8
  %2 = extractvalue { ptr, i32 } %0, 1
  store i32 %2, ptr %ehselector.slot, align 4
  call void @_ZNSt7__cxx1112basic_stringIcSt11char_traitsIcESaIcEED1Ev(ptr noundef nonnull align 8 dereferenceable(32) %_address) #8
  br label %eh.resume

eh.resume:                                        ; preds = %lpad
  %exn = load ptr, ptr %exn.slot, align 8
  %sel = load i32, ptr %ehselector.slot, align 4
  %lpad.val = insertvalue { ptr, i32 } poison, ptr %exn, 0
  %lpad.val6 = insertvalue { ptr, i32 } %lpad.val, i32 %sel, 1
  resume { ptr, i32 } %lpad.val6
}