; Function Attrs: mustprogress uwtable
define void @_ZN3zmq13udp_address_tC2Ev(ptr noundef nonnull align 8 dereferenceable(104) %this) unnamed_addr #0 align 2 personality ptr @__gxx_personality_v0 {
entry:
  %ref.tmp = alloca %"union.zmq::ip_addr_t", align 4
  %ref.tmp3 = alloca %"union.zmq::ip_addr_t", align 4
  store ptr getelementptr inbounds ({ [5 x ptr] }, ptr @_ZTVN3zmq13udp_address_tE, i64 0, i32 0, i64 2), ptr %this, align 8
  %_bind_interface = getelementptr inbounds i8, ptr %this, i64 36
  store i32 -1, ptr %_bind_interface, align 4
  %_is_multicast = getelementptr inbounds i8, ptr %this, i64 68
  store i8 0, ptr %_is_multicast, align 4
  %_address = getelementptr inbounds i8, ptr %this, i64 72
  tail call void @_ZNSt7__cxx1112basic_stringIcSt11char_traitsIcESaIcEEC1Ev(ptr noundef nonnull align 8 dereferenceable(32) %_address) #10
  invoke void @_ZN3zmq9ip_addr_t3anyEi(ptr nonnull sret(%"union.zmq::ip_addr_t") align 4 %ref.tmp, i32 noundef 2)
          to label %invoke.cont unwind label %lpad

invoke.cont:                                      ; preds = %entry
  %_bind_address2 = getelementptr inbounds i8, ptr %this, i64 8
  call void @llvm.memcpy.p0.p0.i64(ptr noundef nonnull align 8 dereferenceable(28) %_bind_address2, ptr noundef nonnull align 4 dereferenceable(28) %ref.tmp, i64 28, i1 false)
  invoke void @_ZN3zmq9ip_addr_t3anyEi(ptr nonnull sret(%"union.zmq::ip_addr_t") align 4 %ref.tmp3, i32 noundef 2)
          to label %invoke.cont4 unwind label %lpad

invoke.cont4:                                     ; preds = %invoke.cont
  %_target_address5 = getelementptr inbounds i8, ptr %this, i64 40
  call void @llvm.memcpy.p0.p0.i64(ptr noundef nonnull align 8 dereferenceable(28) %_target_address5, ptr noundef nonnull align 4 dereferenceable(28) %ref.tmp3, i64 28, i1 false)
  ret void

lpad:                                             ; preds = %invoke.cont, %entry
  %0 = landingpad { ptr, i32 }
          cleanup
  call void @_ZNSt7__cxx1112basic_stringIcSt11char_traitsIcESaIcEED1Ev(ptr noundef nonnull align 8 dereferenceable(32) %_address) #10
  resume { ptr, i32 } %0
}